
level07:     file format elf32-i386


Disassembly of section .init:

08048384 <_init>:
 8048384:	53                   	push   %ebx
 8048385:	83 ec 08             	sub    $0x8,%esp
 8048388:	e8 00 00 00 00       	call   804838d <_init+0x9>
 804838d:	5b                   	pop    %ebx
 804838e:	81 c3 67 1c 00 00    	add    $0x1c67,%ebx
 8048394:	8b 83 fc ff ff ff    	mov    -0x4(%ebx),%eax
 804839a:	85 c0                	test   %eax,%eax
 804839c:	74 05                	je     80483a3 <_init+0x1f>
 804839e:	e8 7d 00 00 00       	call   8048420 <__gmon_start__@plt>
 80483a3:	e8 48 01 00 00       	call   80484f0 <frame_dummy>
 80483a8:	e8 83 02 00 00       	call   8048630 <__do_global_ctors_aux>
 80483ad:	83 c4 08             	add    $0x8,%esp
 80483b0:	5b                   	pop    %ebx
 80483b1:	c3                   	ret    

Disassembly of section .plt:

080483c0 <.plt>:
 80483c0:	ff 35 f8 9f 04 08    	pushl  0x8049ff8
 80483c6:	ff 25 fc 9f 04 08    	jmp    *0x8049ffc
 80483cc:	00 00                	add    %al,(%eax)
	...

080483d0 <setresuid@plt>:
 80483d0:	ff 25 00 a0 04 08    	jmp    *0x804a000
 80483d6:	68 00 00 00 00       	push   $0x0
 80483db:	e9 e0 ff ff ff       	jmp    80483c0 <.plt>

080483e0 <geteuid@plt>:
 80483e0:	ff 25 04 a0 04 08    	jmp    *0x804a004
 80483e6:	68 08 00 00 00       	push   $0x8
 80483eb:	e9 d0 ff ff ff       	jmp    80483c0 <.plt>

080483f0 <getegid@plt>:
 80483f0:	ff 25 08 a0 04 08    	jmp    *0x804a008
 80483f6:	68 10 00 00 00       	push   $0x10
 80483fb:	e9 c0 ff ff ff       	jmp    80483c0 <.plt>

08048400 <getenv@plt>:
 8048400:	ff 25 0c a0 04 08    	jmp    *0x804a00c
 8048406:	68 18 00 00 00       	push   $0x18
 804840b:	e9 b0 ff ff ff       	jmp    80483c0 <.plt>

08048410 <system@plt>:
 8048410:	ff 25 10 a0 04 08    	jmp    *0x804a010
 8048416:	68 20 00 00 00       	push   $0x20
 804841b:	e9 a0 ff ff ff       	jmp    80483c0 <.plt>

08048420 <__gmon_start__@plt>:
 8048420:	ff 25 14 a0 04 08    	jmp    *0x804a014
 8048426:	68 28 00 00 00       	push   $0x28
 804842b:	e9 90 ff ff ff       	jmp    80483c0 <.plt>

08048430 <__libc_start_main@plt>:
 8048430:	ff 25 18 a0 04 08    	jmp    *0x804a018
 8048436:	68 30 00 00 00       	push   $0x30
 804843b:	e9 80 ff ff ff       	jmp    80483c0 <.plt>

08048440 <asprintf@plt>:
 8048440:	ff 25 1c a0 04 08    	jmp    *0x804a01c
 8048446:	68 38 00 00 00       	push   $0x38
 804844b:	e9 70 ff ff ff       	jmp    80483c0 <.plt>

08048450 <setresgid@plt>:
 8048450:	ff 25 20 a0 04 08    	jmp    *0x804a020
 8048456:	68 40 00 00 00       	push   $0x40
 804845b:	e9 60 ff ff ff       	jmp    80483c0 <.plt>

Disassembly of section .text:

08048460 <_start>:
 8048460:	31 ed                	xor    %ebp,%ebp
 8048462:	5e                   	pop    %esi
 8048463:	89 e1                	mov    %esp,%ecx
 8048465:	83 e4 f0             	and    $0xfffffff0,%esp
 8048468:	50                   	push   %eax
 8048469:	54                   	push   %esp
 804846a:	52                   	push   %edx
 804846b:	68 20 86 04 08       	push   $0x8048620
 8048470:	68 b0 85 04 08       	push   $0x80485b0
 8048475:	51                   	push   %ecx
 8048476:	56                   	push   %esi
 8048477:	68 14 85 04 08       	push   $0x8048514
 804847c:	e8 af ff ff ff       	call   8048430 <__libc_start_main@plt>
 8048481:	f4                   	hlt    
 8048482:	90                   	nop
 8048483:	90                   	nop
 8048484:	90                   	nop
 8048485:	90                   	nop
 8048486:	90                   	nop
 8048487:	90                   	nop
 8048488:	90                   	nop
 8048489:	90                   	nop
 804848a:	90                   	nop
 804848b:	90                   	nop
 804848c:	90                   	nop
 804848d:	90                   	nop
 804848e:	90                   	nop
 804848f:	90                   	nop

08048490 <__do_global_dtors_aux>:
 8048490:	55                   	push   %ebp
 8048491:	89 e5                	mov    %esp,%ebp
 8048493:	53                   	push   %ebx
 8048494:	83 ec 04             	sub    $0x4,%esp
 8048497:	80 3d 2c a0 04 08 00 	cmpb   $0x0,0x804a02c
 804849e:	75 3f                	jne    80484df <__do_global_dtors_aux+0x4f>
 80484a0:	a1 30 a0 04 08       	mov    0x804a030,%eax
 80484a5:	bb 20 9f 04 08       	mov    $0x8049f20,%ebx
 80484aa:	81 eb 1c 9f 04 08    	sub    $0x8049f1c,%ebx
 80484b0:	c1 fb 02             	sar    $0x2,%ebx
 80484b3:	83 eb 01             	sub    $0x1,%ebx
 80484b6:	39 d8                	cmp    %ebx,%eax
 80484b8:	73 1e                	jae    80484d8 <__do_global_dtors_aux+0x48>
 80484ba:	8d b6 00 00 00 00    	lea    0x0(%esi),%esi
 80484c0:	83 c0 01             	add    $0x1,%eax
 80484c3:	a3 30 a0 04 08       	mov    %eax,0x804a030
 80484c8:	ff 14 85 1c 9f 04 08 	call   *0x8049f1c(,%eax,4)
 80484cf:	a1 30 a0 04 08       	mov    0x804a030,%eax
 80484d4:	39 d8                	cmp    %ebx,%eax
 80484d6:	72 e8                	jb     80484c0 <__do_global_dtors_aux+0x30>
 80484d8:	c6 05 2c a0 04 08 01 	movb   $0x1,0x804a02c
 80484df:	83 c4 04             	add    $0x4,%esp
 80484e2:	5b                   	pop    %ebx
 80484e3:	5d                   	pop    %ebp
 80484e4:	c3                   	ret    
 80484e5:	8d 74 26 00          	lea    0x0(%esi,%eiz,1),%esi
 80484e9:	8d bc 27 00 00 00 00 	lea    0x0(%edi,%eiz,1),%edi

080484f0 <frame_dummy>:
 80484f0:	55                   	push   %ebp
 80484f1:	89 e5                	mov    %esp,%ebp
 80484f3:	83 ec 18             	sub    $0x18,%esp
 80484f6:	a1 24 9f 04 08       	mov    0x8049f24,%eax
 80484fb:	85 c0                	test   %eax,%eax
 80484fd:	74 12                	je     8048511 <frame_dummy+0x21>
 80484ff:	b8 00 00 00 00       	mov    $0x0,%eax
 8048504:	85 c0                	test   %eax,%eax
 8048506:	74 09                	je     8048511 <frame_dummy+0x21>
 8048508:	c7 04 24 24 9f 04 08 	movl   $0x8049f24,(%esp)
 804850f:	ff d0                	call   *%eax
 8048511:	c9                   	leave  
 8048512:	c3                   	ret    
 8048513:	90                   	nop

08048514 <main>:
 8048514:	55                   	push   %ebp
 8048515:	89 e5                	mov    %esp,%ebp
 8048517:	83 e4 f0             	and    $0xfffffff0,%esp
 804851a:	83 ec 20             	sub    $0x20,%esp
 804851d:	e8 ce fe ff ff       	call   80483f0 <getegid@plt>
 8048522:	89 44 24 18          	mov    %eax,0x18(%esp)
 8048526:	e8 b5 fe ff ff       	call   80483e0 <geteuid@plt>
 804852b:	89 44 24 1c          	mov    %eax,0x1c(%esp)
 804852f:	8b 44 24 18          	mov    0x18(%esp),%eax
 8048533:	89 44 24 08          	mov    %eax,0x8(%esp)
 8048537:	8b 44 24 18          	mov    0x18(%esp),%eax
 804853b:	89 44 24 04          	mov    %eax,0x4(%esp)
 804853f:	8b 44 24 18          	mov    0x18(%esp),%eax
 8048543:	89 04 24             	mov    %eax,(%esp)
 8048546:	e8 05 ff ff ff       	call   8048450 <setresgid@plt>
 804854b:	8b 44 24 1c          	mov    0x1c(%esp),%eax
 804854f:	89 44 24 08          	mov    %eax,0x8(%esp)
 8048553:	8b 44 24 1c          	mov    0x1c(%esp),%eax
 8048557:	89 44 24 04          	mov    %eax,0x4(%esp)
 804855b:	8b 44 24 1c          	mov    0x1c(%esp),%eax
 804855f:	89 04 24             	mov    %eax,(%esp)
 8048562:	e8 69 fe ff ff       	call   80483d0 <setresuid@plt>
 8048567:	c7 44 24 14 00 00 00 	movl   $0x0,0x14(%esp)
 804856e:	00 
 804856f:	c7 04 24 80 86 04 08 	movl   $0x8048680,(%esp)
 8048576:	e8 85 fe ff ff       	call   8048400 <getenv@plt>
 804857b:	89 44 24 08          	mov    %eax,0x8(%esp)
 804857f:	c7 44 24 04 88 86 04 	movl   $0x8048688,0x4(%esp)
 8048586:	08 
 8048587:	8d 44 24 14          	lea    0x14(%esp),%eax
 804858b:	89 04 24             	mov    %eax,(%esp)
 804858e:	e8 ad fe ff ff       	call   8048440 <asprintf@plt>
 8048593:	8b 44 24 14          	mov    0x14(%esp),%eax
 8048597:	89 04 24             	mov    %eax,(%esp)
 804859a:	e8 71 fe ff ff       	call   8048410 <system@plt>
 804859f:	c9                   	leave  
 80485a0:	c3                   	ret    
 80485a1:	90                   	nop
 80485a2:	90                   	nop
 80485a3:	90                   	nop
 80485a4:	90                   	nop
 80485a5:	90                   	nop
 80485a6:	90                   	nop
 80485a7:	90                   	nop
 80485a8:	90                   	nop
 80485a9:	90                   	nop
 80485aa:	90                   	nop
 80485ab:	90                   	nop
 80485ac:	90                   	nop
 80485ad:	90                   	nop
 80485ae:	90                   	nop
 80485af:	90                   	nop

080485b0 <__libc_csu_init>:
 80485b0:	55                   	push   %ebp
 80485b1:	57                   	push   %edi
 80485b2:	56                   	push   %esi
 80485b3:	53                   	push   %ebx
 80485b4:	e8 69 00 00 00       	call   8048622 <__i686.get_pc_thunk.bx>
 80485b9:	81 c3 3b 1a 00 00    	add    $0x1a3b,%ebx
 80485bf:	83 ec 1c             	sub    $0x1c,%esp
 80485c2:	8b 6c 24 30          	mov    0x30(%esp),%ebp
 80485c6:	8d bb 20 ff ff ff    	lea    -0xe0(%ebx),%edi
 80485cc:	e8 b3 fd ff ff       	call   8048384 <_init>
 80485d1:	8d 83 20 ff ff ff    	lea    -0xe0(%ebx),%eax
 80485d7:	29 c7                	sub    %eax,%edi
 80485d9:	c1 ff 02             	sar    $0x2,%edi
 80485dc:	85 ff                	test   %edi,%edi
 80485de:	74 29                	je     8048609 <__libc_csu_init+0x59>
 80485e0:	31 f6                	xor    %esi,%esi
 80485e2:	8d b6 00 00 00 00    	lea    0x0(%esi),%esi
 80485e8:	8b 44 24 38          	mov    0x38(%esp),%eax
 80485ec:	89 2c 24             	mov    %ebp,(%esp)
 80485ef:	89 44 24 08          	mov    %eax,0x8(%esp)
 80485f3:	8b 44 24 34          	mov    0x34(%esp),%eax
 80485f7:	89 44 24 04          	mov    %eax,0x4(%esp)
 80485fb:	ff 94 b3 20 ff ff ff 	call   *-0xe0(%ebx,%esi,4)
 8048602:	83 c6 01             	add    $0x1,%esi
 8048605:	39 fe                	cmp    %edi,%esi
 8048607:	75 df                	jne    80485e8 <__libc_csu_init+0x38>
 8048609:	83 c4 1c             	add    $0x1c,%esp
 804860c:	5b                   	pop    %ebx
 804860d:	5e                   	pop    %esi
 804860e:	5f                   	pop    %edi
 804860f:	5d                   	pop    %ebp
 8048610:	c3                   	ret    
 8048611:	eb 0d                	jmp    8048620 <__libc_csu_fini>
 8048613:	90                   	nop
 8048614:	90                   	nop
 8048615:	90                   	nop
 8048616:	90                   	nop
 8048617:	90                   	nop
 8048618:	90                   	nop
 8048619:	90                   	nop
 804861a:	90                   	nop
 804861b:	90                   	nop
 804861c:	90                   	nop
 804861d:	90                   	nop
 804861e:	90                   	nop
 804861f:	90                   	nop

08048620 <__libc_csu_fini>:
 8048620:	f3 c3                	repz ret 

08048622 <__i686.get_pc_thunk.bx>:
 8048622:	8b 1c 24             	mov    (%esp),%ebx
 8048625:	c3                   	ret    
 8048626:	90                   	nop
 8048627:	90                   	nop
 8048628:	90                   	nop
 8048629:	90                   	nop
 804862a:	90                   	nop
 804862b:	90                   	nop
 804862c:	90                   	nop
 804862d:	90                   	nop
 804862e:	90                   	nop
 804862f:	90                   	nop

08048630 <__do_global_ctors_aux>:
 8048630:	55                   	push   %ebp
 8048631:	89 e5                	mov    %esp,%ebp
 8048633:	53                   	push   %ebx
 8048634:	83 ec 04             	sub    $0x4,%esp
 8048637:	a1 14 9f 04 08       	mov    0x8049f14,%eax
 804863c:	83 f8 ff             	cmp    $0xffffffff,%eax
 804863f:	74 13                	je     8048654 <__do_global_ctors_aux+0x24>
 8048641:	bb 14 9f 04 08       	mov    $0x8049f14,%ebx
 8048646:	66 90                	xchg   %ax,%ax
 8048648:	83 eb 04             	sub    $0x4,%ebx
 804864b:	ff d0                	call   *%eax
 804864d:	8b 03                	mov    (%ebx),%eax
 804864f:	83 f8 ff             	cmp    $0xffffffff,%eax
 8048652:	75 f4                	jne    8048648 <__do_global_ctors_aux+0x18>
 8048654:	83 c4 04             	add    $0x4,%esp
 8048657:	5b                   	pop    %ebx
 8048658:	5d                   	pop    %ebp
 8048659:	c3                   	ret    
 804865a:	90                   	nop
 804865b:	90                   	nop

Disassembly of section .fini:

0804865c <_fini>:
 804865c:	53                   	push   %ebx
 804865d:	83 ec 08             	sub    $0x8,%esp
 8048660:	e8 00 00 00 00       	call   8048665 <_fini+0x9>
 8048665:	5b                   	pop    %ebx
 8048666:	81 c3 8f 19 00 00    	add    $0x198f,%ebx
 804866c:	e8 1f fe ff ff       	call   8048490 <__do_global_dtors_aux>
 8048671:	83 c4 08             	add    $0x8,%esp
 8048674:	5b                   	pop    %ebx
 8048675:	c3                   	ret    
